target datalayout = "e-m:e-p270:32:32-p271:32:32-p272:64:64-i64:64-i128:128-f80:128-n8:16:32:64-S128"
target triple = "x86_64-pc-linux-gnu"

%struct._zend_array = type { %struct._zend_refcounted_h, %union.anon.17, i32, %union.anon.19, i32, i32, i32, i32, i64, ptr }
%struct._zend_refcounted_h = type { i32, %union.anon.16 }
%union.anon.16 = type { i32 }
%union.anon.17 = type { i32 }
%union.anon.19 = type { ptr }
%struct._zend_stack = type { i32, i32, i32, ptr }
%struct._zend_executor_globals = type { %struct._zval_struct, %struct._zval_struct, [32 x ptr], ptr, ptr, %struct._zend_array, %struct._zend_array, ptr, i32, i32, ptr, ptr, ptr, ptr, ptr, ptr, i64, ptr, ptr, i32, i32, i64, i32, i32, i32, i8, i8, %struct.zend_atomic_bool_s, %struct.zend_atomic_bool_s, ptr, i64, ptr, ptr, %struct._zend_array, %struct._zend_array, i32, i8, %struct._zval_struct, %struct._zval_struct, %struct._zend_stack, %struct._zend_stack, %struct._zend_stack, ptr, i32, i32, i64, ptr, ptr, ptr, %struct._zend_objects_store, ptr, ptr, ptr, [3 x %struct._zend_op], ptr, i8, i8, i64, i32, i32, ptr, [16 x %struct._HashTableIterator], ptr, %union._zend_function, %struct._zend_op, %struct._zend_array, i64, %struct.zend_get_gc_buffer, ptr, ptr, ptr, i64, i8, i32, ptr, ptr, i64, %struct._zend_call_stack, i64, i64, [6 x ptr] }
%struct.zend_atomic_bool_s = type { i8 }
%struct._zval_struct = type { %union._zend_value, %union.anon.21, %union.anon.24 }
%union._zend_value = type { i64 }
%union.anon.21 = type { i32 }
%union.anon.24 = type { i32 }
%struct._zend_objects_store = type { ptr, i32, i32, i32 }
%struct._HashTableIterator = type { ptr, i32, i32 }
%union._zend_function = type { %struct._zend_op_array }
%struct._zend_op_array = type { i8, [3 x i8], i32, ptr, ptr, ptr, i32, i32, ptr, ptr, ptr, ptr, i32, i32, i32, i32, ptr, ptr, ptr, ptr, ptr, i32, i32, ptr, ptr, ptr, i32, i32, i32, i32, ptr, ptr, [6 x ptr] }
%struct._zend_op = type { ptr, %union._znode_op, %union._znode_op, %union._znode_op, i32, i32, i8, i8, i8, i8 }
%union._znode_op = type { i32 }
%struct.zend_get_gc_buffer = type { ptr, ptr, ptr }
%struct._zend_call_stack = type { ptr, i64 }
%struct._zend_execute_data = type { ptr, ptr, ptr, ptr, %struct._zval_struct, ptr, ptr, ptr, ptr }
%struct.anon.25 = type { i8, [3 x i8], i32, ptr, ptr, ptr, i32, i32, ptr, ptr, ptr, ptr, i32 }
%struct._zend_refcounted = type { %struct._zend_refcounted_h }
%struct.zend_type = type { ptr, i32 }
%struct._zend_property_info = type { i32, i32, ptr, ptr, ptr, ptr, %struct.zend_type }
%struct._zend_reference = type { %struct._zend_refcounted_h, %struct._zval_struct, %union.zend_property_info_source_list }
%union.zend_property_info_source_list = type { ptr }

@executor_globals = external global %struct._zend_executor_globals, align 8

; Function Attrs: nounwind uwtable
define internal void @zend_jit_dec_typed_prop(ptr noundef %0, ptr noundef %1) #0 {
  %3 = alloca ptr, align 8
  %4 = alloca ptr, align 8
  %5 = alloca ptr, align 8
  %6 = alloca ptr, align 8
  %7 = alloca ptr, align 8
  %8 = alloca ptr, align 8
  %9 = alloca ptr, align 8
  %10 = alloca %struct._zval_struct, align 8
  %11 = alloca ptr, align 8
  %12 = alloca ptr, align 8
  %13 = alloca ptr, align 8
  %14 = alloca i32, align 4
  %15 = alloca i64, align 8
  %16 = alloca ptr, align 8
  %17 = alloca ptr, align 8
  %18 = alloca ptr, align 8
  %19 = alloca ptr, align 8
  %20 = alloca i32, align 4
  store ptr %0, ptr %7, align 8
  store ptr %1, ptr %8, align 8
  %21 = load ptr, ptr %8, align 8
  %22 = getelementptr inbounds %struct._zend_property_info, ptr %21, i32 0, i32 1
  %23 = load i32, ptr %22, align 4
  %24 = and i32 %23, 128
  %25 = icmp ne i32 %24, 0
  br i1 %25, label %26, label %33

26:                                               ; preds = %2
  %27 = load ptr, ptr %7, align 8
  %28 = getelementptr inbounds %struct._zval_struct, ptr %27, i32 0, i32 2
  %29 = load i32, ptr %28, align 4
  %30 = and i32 %29, 2
  %31 = icmp ne i32 %30, 0
  %32 = xor i1 %31, true
  br label %33

33:                                               ; preds = %26, %2
  %34 = phi i1 [ false, %2 ], [ %32, %26 ]
  %35 = xor i1 %34, true
  %36 = xor i1 %35, true
  %37 = zext i1 %36 to i32
  %38 = sext i32 %37 to i64
  %39 = icmp ne i64 %38, 0
  br i1 %39, label %40, label %42

40:                                               ; preds = %33
  %41 = load ptr, ptr %8, align 8
  call void @zend_readonly_property_modification_error(ptr noundef %41)
  br label %175

42:                                               ; preds = %33
  %43 = load ptr, ptr getelementptr inbounds (%struct._zend_executor_globals, ptr @executor_globals, i32 0, i32 17), align 8
  store ptr %43, ptr %9, align 8
  br label %44

44:                                               ; preds = %42
  %45 = load ptr, ptr %7, align 8
  store ptr %45, ptr %4, align 8
  %46 = load ptr, ptr %4, align 8
  %47 = getelementptr inbounds %struct._zval_struct, ptr %46, i32 0, i32 1
  %48 = load i8, ptr %47, align 8
  %49 = zext i8 %48 to i32
  %50 = icmp eq i32 %49, 10
  %51 = xor i1 %50, true
  %52 = xor i1 %51, true
  %53 = zext i1 %52 to i32
  %54 = sext i32 %53 to i64
  %55 = icmp ne i64 %54, 0
  br i1 %55, label %56, label %61

56:                                               ; preds = %44
  %57 = load ptr, ptr %7, align 8
  %58 = getelementptr inbounds %struct._zval_struct, ptr %57, i32 0, i32 0
  %59 = load ptr, ptr %58, align 8
  %60 = getelementptr inbounds %struct._zend_reference, ptr %59, i32 0, i32 1
  store ptr %60, ptr %7, align 8
  br label %61

61:                                               ; preds = %56, %44
  br label %62

62:                                               ; preds = %61
  br label %63

63:                                               ; preds = %62
  store ptr %10, ptr %11, align 8
  %64 = load ptr, ptr %7, align 8
  store ptr %64, ptr %12, align 8
  %65 = load ptr, ptr %12, align 8
  %66 = getelementptr inbounds %struct._zval_struct, ptr %65, i32 0, i32 0
  %67 = load ptr, ptr %66, align 8
  store ptr %67, ptr %13, align 8
  %68 = load ptr, ptr %12, align 8
  %69 = getelementptr inbounds %struct._zval_struct, ptr %68, i32 0, i32 1
  %70 = load i32, ptr %69, align 8
  store i32 %70, ptr %14, align 4
  br label %71

71:                                               ; preds = %63
  %72 = load ptr, ptr %13, align 8
  %73 = load ptr, ptr %11, align 8
  %74 = getelementptr inbounds %struct._zval_struct, ptr %73, i32 0, i32 0
  store ptr %72, ptr %74, align 8
  %75 = load i32, ptr %14, align 4
  %76 = load ptr, ptr %11, align 8
  %77 = getelementptr inbounds %struct._zval_struct, ptr %76, i32 0, i32 1
  store i32 %75, ptr %77, align 8
  br label %78

78:                                               ; preds = %71
  %79 = load i32, ptr %14, align 4
  %80 = and i32 %79, 65280
  %81 = icmp ne i32 %80, 0
  br i1 %81, label %82, label %88

82:                                               ; preds = %78
  %83 = load ptr, ptr %13, align 8
  %84 = getelementptr inbounds %struct._zend_refcounted, ptr %83, i32 0, i32 0
  store ptr %84, ptr %3, align 8
  %85 = load ptr, ptr %3, align 8
  %86 = load i32, ptr %85, align 4
  %87 = add i32 %86, 1
  store i32 %87, ptr %85, align 4
  br label %88

88:                                               ; preds = %82, %78
  br label %89

89:                                               ; preds = %88
  %90 = load ptr, ptr %7, align 8
  %91 = call i32 @decrement_function(ptr noundef %90)
  %92 = load ptr, ptr %7, align 8
  store ptr %92, ptr %5, align 8
  %93 = load ptr, ptr %5, align 8
  %94 = getelementptr inbounds %struct._zval_struct, ptr %93, i32 0, i32 1
  %95 = load i8, ptr %94, align 8
  %96 = zext i8 %95 to i32
  %97 = icmp eq i32 %96, 5
  %98 = xor i1 %97, true
  %99 = xor i1 %98, true
  %100 = zext i1 %99 to i32
  %101 = sext i32 %100 to i64
  %102 = icmp ne i64 %101, 0
  br i1 %102, label %103, label %133

103:                                              ; preds = %89
  store ptr %10, ptr %6, align 8
  %104 = load ptr, ptr %6, align 8
  %105 = getelementptr inbounds %struct._zval_struct, ptr %104, i32 0, i32 1
  %106 = load i8, ptr %105, align 8
  %107 = zext i8 %106 to i32
  %108 = icmp eq i32 %107, 4
  br i1 %108, label %109, label %133

109:                                              ; preds = %103
  %110 = load ptr, ptr %8, align 8
  %111 = getelementptr inbounds %struct._zend_property_info, ptr %110, i32 0, i32 6
  %112 = getelementptr inbounds %struct.zend_type, ptr %111, i32 0, i32 1
  %113 = load i32, ptr %112, align 8
  %114 = and i32 %113, 32
  %115 = icmp ne i32 %114, 0
  br i1 %115, label %127, label %116

116:                                              ; preds = %109
  %117 = load ptr, ptr %8, align 8
  %118 = call i64 @_zend_jit_throw_dec_prop_error(ptr noundef %117)
  store i64 %118, ptr %15, align 8
  br label %119

119:                                              ; preds = %116
  %120 = load ptr, ptr %7, align 8
  store ptr %120, ptr %16, align 8
  %121 = load i64, ptr %15, align 8
  %122 = load ptr, ptr %16, align 8
  %123 = getelementptr inbounds %struct._zval_struct, ptr %122, i32 0, i32 0
  store i64 %121, ptr %123, align 8
  %124 = load ptr, ptr %16, align 8
  %125 = getelementptr inbounds %struct._zval_struct, ptr %124, i32 0, i32 1
  store i32 4, ptr %125, align 8
  br label %126

126:                                              ; preds = %119
  br label %132

127:                                              ; preds = %109
  %128 = load ptr, ptr %7, align 8
  %129 = getelementptr inbounds %struct._zval_struct, ptr %128, i32 0, i32 2
  %130 = load i32, ptr %129, align 4
  %131 = and i32 %130, -3
  store i32 %131, ptr %129, align 4
  br label %132

132:                                              ; preds = %127, %126
  br label %175

133:                                              ; preds = %103, %89
  %134 = load ptr, ptr %8, align 8
  %135 = load ptr, ptr %7, align 8
  %136 = load ptr, ptr %9, align 8
  %137 = getelementptr inbounds %struct._zend_execute_data, ptr %136, i32 0, i32 3
  %138 = load ptr, ptr %137, align 8
  %139 = getelementptr inbounds %struct.anon.25, ptr %138, i32 0, i32 2
  %140 = load i32, ptr %139, align 4
  %141 = and i32 %140, -2147483648
  %142 = icmp ne i32 %141, 0
  %143 = call zeroext i1 @zend_verify_property_type(ptr noundef %134, ptr noundef %135, i1 noundef zeroext %142)
  %144 = xor i1 %143, true
  %145 = xor i1 %144, true
  %146 = xor i1 %145, true
  %147 = zext i1 %146 to i32
  %148 = sext i32 %147 to i64
  %149 = icmp ne i64 %148, 0
  br i1 %149, label %150, label %169

150:                                              ; preds = %133
  %151 = load ptr, ptr %7, align 8
  call void @zval_ptr_dtor(ptr noundef %151)
  br label %152

152:                                              ; preds = %150
  %153 = load ptr, ptr %7, align 8
  store ptr %153, ptr %17, align 8
  store ptr %10, ptr %18, align 8
  %154 = load ptr, ptr %18, align 8
  %155 = getelementptr inbounds %struct._zval_struct, ptr %154, i32 0, i32 0
  %156 = load ptr, ptr %155, align 8
  store ptr %156, ptr %19, align 8
  %157 = load ptr, ptr %18, align 8
  %158 = getelementptr inbounds %struct._zval_struct, ptr %157, i32 0, i32 1
  %159 = load i32, ptr %158, align 8
  store i32 %159, ptr %20, align 4
  br label %160

160:                                              ; preds = %152
  %161 = load ptr, ptr %19, align 8
  %162 = load ptr, ptr %17, align 8
  %163 = getelementptr inbounds %struct._zval_struct, ptr %162, i32 0, i32 0
  store ptr %161, ptr %163, align 8
  %164 = load i32, ptr %20, align 4
  %165 = load ptr, ptr %17, align 8
  %166 = getelementptr inbounds %struct._zval_struct, ptr %165, i32 0, i32 1
  store i32 %164, ptr %166, align 8
  br label %167

167:                                              ; preds = %160
  br label %168

168:                                              ; preds = %167
  br label %174

169:                                              ; preds = %133
  %170 = load ptr, ptr %7, align 8
  %171 = getelementptr inbounds %struct._zval_struct, ptr %170, i32 0, i32 2
  %172 = load i32, ptr %171, align 4
  %173 = and i32 %172, -3
  store i32 %173, ptr %171, align 4
  call void @zval_ptr_dtor(ptr noundef %10)
  br label %174

174:                                              ; preds = %169, %168
  br label %175

175:                                              ; preds = %174, %132, %40
  ret void
}