; Function Attrs: nounwind uwtable
define internal void @zend_jit_dec_typed_prop(ptr noundef %0, ptr noundef %1) #0 {
  %3 = alloca %struct._zval_struct, align 8
  %4 = getelementptr inbounds i8, ptr %1, i64 4
  %5 = load i32, ptr %4, align 4
  %6 = and i32 %5, 128
  %.not = icmp eq i32 %6, 0
  br i1 %.not, label %.critedge, label %7

7:                                                ; preds = %2
  %8 = getelementptr inbounds i8, ptr %0, i64 12
  %9 = load i32, ptr %8, align 4
  %10 = and i32 %9, 2
  %.not38 = icmp eq i32 %10, 0
  br i1 %.not38, label %11, label %.critedge

11:                                               ; preds = %7
  tail call void @zend_readonly_property_modification_error(ptr noundef nonnull %1) #32
  br label %55

.critedge:                                        ; preds = %2, %7
  %12 = load ptr, ptr getelementptr inbounds (%struct._zend_executor_globals, ptr @executor_globals, i64 0, i32 17), align 8
  %13 = getelementptr inbounds i8, ptr %0, i64 8
  %14 = load i8, ptr %13, align 8
  %15 = icmp eq i8 %14, 10
  br i1 %15, label %16, label %19

16:                                               ; preds = %.critedge
  %17 = load ptr, ptr %0, align 8
  %18 = getelementptr inbounds i8, ptr %17, i64 8
  br label %19

19:                                               ; preds = %16, %.critedge
  %.0 = phi ptr [ %18, %16 ], [ %0, %.critedge ]
  %20 = load ptr, ptr %.0, align 8
  %21 = getelementptr inbounds i8, ptr %.0, i64 8
  %22 = load i32, ptr %21, align 8
  store ptr %20, ptr %3, align 8
  %23 = getelementptr inbounds i8, ptr %3, i64 8
  store i32 %22, ptr %23, align 8
  %24 = and i32 %22, 65280
  %.not39 = icmp eq i32 %24, 0
  br i1 %.not39, label %28, label %25

25:                                               ; preds = %19
  %26 = load i32, ptr %20, align 4
  %27 = add i32 %26, 1
  store i32 %27, ptr %20, align 4
  br label %28

28:                                               ; preds = %19, %25
  %29 = tail call i32 @decrement_function(ptr noundef nonnull %.0) #32
  %30 = load i8, ptr %21, align 8
  %31 = icmp eq i8 %30, 5
  %32 = and i32 %22, 255
  %33 = icmp eq i32 %32, 4
  %or.cond = and i1 %31, %33
  br i1 %or.cond, label %34, label %43

34:                                               ; preds = %28
  %35 = getelementptr inbounds i8, ptr %1, i64 48
  %36 = load i32, ptr %35, align 8
  %37 = and i32 %36, 32
  %.not40 = icmp eq i32 %37, 0
  br i1 %.not40, label %38, label %39

38:                                               ; preds = %34
  tail call fastcc void @_zend_jit_throw_dec_prop_error(ptr noundef nonnull %1)
  store i64 -9223372036854775808, ptr %.0, align 8
  store i32 4, ptr %21, align 8
  br label %55

39:                                               ; preds = %34
  %40 = getelementptr inbounds i8, ptr %.0, i64 12
  %41 = load i32, ptr %40, align 4
  %42 = and i32 %41, -3
  store i32 %42, ptr %40, align 4
  br label %55

43:                                               ; preds = %28
  %44 = getelementptr inbounds i8, ptr %12, i64 24
  %45 = load ptr, ptr %44, align 8
  %46 = getelementptr inbounds i8, ptr %45, i64 4
  %47 = load i32, ptr %46, align 4
  %48 = icmp slt i32 %47, 0
  %49 = tail call zeroext i1 @zend_verify_property_type(ptr noundef nonnull %1, ptr noundef nonnull %.0, i1 noundef zeroext %48) #32
  br i1 %49, label %51, label %50

50:                                               ; preds = %43
  tail call void @zval_ptr_dtor(ptr noundef nonnull %.0) #32
  store ptr %20, ptr %.0, align 8
  store i32 %22, ptr %21, align 8
  br label %55

51:                                               ; preds = %43
  %52 = getelementptr inbounds i8, ptr %.0, i64 12
  %53 = load i32, ptr %52, align 4
  %54 = and i32 %53, -3
  store i32 %54, ptr %52, align 4
  call void @zval_ptr_dtor(ptr noundef nonnull %3) #32
  br label %55

55:                                               ; preds = %50, %51, %38, %39, %11
  ret void
}